; Function Attrs: mustprogress nofree norecurse nosync nounwind willreturn memory(argmem: readwrite) uwtable
define dso_local void @_ZN4llvm11Instruction17copyFastMathFlagsEPKS0_(ptr nocapture noundef nonnull align 8 dereferenceable(72) %0, ptr nocapture noundef readonly %1) local_unnamed_addr #6 align 2 {
  %3 = getelementptr inbounds nuw i8, ptr %1, i64 1
  %4 = load i8, ptr %3, align 1
  %5 = and i8 %4, -2
  %6 = getelementptr inbounds nuw i8, ptr %0, i64 1
  %7 = load i8, ptr %6, align 1
  %8 = and i8 %7, 1
  %9 = or disjoint i8 %8, %5
  store i8 %9, ptr %6, align 1
  ret void
}